; Function Attrs: nounwind uwtable
define zeroext range(i8 0, 2) i8 @l___private_Lean_Compiler_InitAttr_0__Lean_isUnitType(ptr noundef %0) local_unnamed_addr #0 {
  %2 = ptrtoint ptr %0 to i64
  %3 = and i64 %2, 1
  %.not.i = icmp eq i64 %3, 0
  br i1 %.not.i, label %7, label %4

4:                                                ; preds = %1
  %5 = lshr i64 %2, 1
  %6 = trunc i64 %5 to i32
  br label %lean_obj_tag.exit

7:                                                ; preds = %1
  %8 = getelementptr i8, ptr %0, i64 4
  %.val.i = load i32, ptr %8, align 4
  %9 = lshr i32 %.val.i, 24
  br label %lean_obj_tag.exit

lean_obj_tag.exit:                                ; preds = %4, %7
  %.0.i = phi i32 [ %6, %4 ], [ %9, %7 ]
  %10 = icmp eq i32 %.0.i, 4
  br i1 %10, label %11, label %lean_string_dec_eq.exit

11:                                               ; preds = %lean_obj_tag.exit
  %12 = getelementptr inbounds nuw i8, ptr %0, i64 8
  %13 = load ptr, ptr %12, align 8, !tbaa !4
  %14 = ptrtoint ptr %13 to i64
  %15 = and i64 %14, 1
  %.not.i12 = icmp eq i64 %15, 0
  br i1 %.not.i12, label %19, label %16

16:                                               ; preds = %11
  %17 = lshr i64 %14, 1
  %18 = trunc i64 %17 to i32
  br label %lean_obj_tag.exit15

19:                                               ; preds = %11
  %20 = getelementptr i8, ptr %13, i64 4
  %.val.i14 = load i32, ptr %20, align 4
  %21 = lshr i32 %.val.i14, 24
  br label %lean_obj_tag.exit15

lean_obj_tag.exit15:                              ; preds = %16, %19
  %.0.i13 = phi i32 [ %18, %16 ], [ %21, %19 ]
  %22 = icmp eq i32 %.0.i13, 1
  br i1 %22, label %23, label %lean_string_dec_eq.exit

23:                                               ; preds = %lean_obj_tag.exit15
  %24 = getelementptr inbounds nuw i8, ptr %13, i64 8
  %25 = load ptr, ptr %24, align 8, !tbaa !4
  %26 = ptrtoint ptr %25 to i64
  %27 = and i64 %26, 1
  %.not.i16 = icmp eq i64 %27, 0
  br i1 %.not.i16, label %31, label %28

28:                                               ; preds = %23
  %29 = lshr i64 %26, 1
  %30 = trunc i64 %29 to i32
  br label %lean_obj_tag.exit19

31:                                               ; preds = %23
  %32 = getelementptr i8, ptr %25, i64 4
  %.val.i18 = load i32, ptr %32, align 4
  %33 = lshr i32 %.val.i18, 24
  br label %lean_obj_tag.exit19

lean_obj_tag.exit19:                              ; preds = %28, %31
  %.0.i17 = phi i32 [ %30, %28 ], [ %33, %31 ]
  %34 = icmp eq i32 %.0.i17, 0
  br i1 %34, label %35, label %lean_string_dec_eq.exit

35:                                               ; preds = %lean_obj_tag.exit19
  %36 = getelementptr inbounds nuw i8, ptr %13, i64 16
  %37 = load ptr, ptr %36, align 8, !tbaa !4
  %38 = load ptr, ptr @l___private_Lean_Compiler_InitAttr_0__Lean_isUnitType___closed__1, align 8, !tbaa !4
  %39 = icmp eq ptr %37, %38
  br i1 %39, label %lean_string_dec_eq.exit, label %40

40:                                               ; preds = %35
  %41 = getelementptr i8, ptr %37, i64 8
  %.val.i.i = load i64, ptr %41, align 8, !tbaa !8
  %42 = getelementptr i8, ptr %38, i64 8
  %.val7.i.i = load i64, ptr %42, align 8, !tbaa !8
  %43 = icmp eq i64 %.val.i.i, %.val7.i.i
  br i1 %43, label %44, label %lean_string_dec_eq.exit

44:                                               ; preds = %40
  %45 = tail call zeroext i1 @lean_string_eq_cold(ptr noundef nonnull %37, ptr noundef nonnull %38) #5
  %46 = zext i1 %45 to i8
  br label %lean_string_dec_eq.exit

lean_string_dec_eq.exit:                          ; preds = %44, %40, %35, %lean_obj_tag.exit, %lean_obj_tag.exit19, %lean_obj_tag.exit15
  %.2 = phi i8 [ 0, %lean_obj_tag.exit19 ], [ 0, %lean_obj_tag.exit15 ], [ 0, %lean_obj_tag.exit ], [ 1, %35 ], [ 0, %40 ], [ %46, %44 ]
  ret i8 %.2
}